target datalayout = "e-m:e-p270:32:32-p271:32:32-p272:64:64-i64:64-i128:128-f80:128-n8:16:32:64-S128"
target triple = "x86_64-pc-linux-gnu"

%struct.URLContext = type { ptr, ptr, ptr, ptr, i32, i32, i32, i32, %struct.AVIOInterruptCB, i64, ptr, ptr, i32 }
%struct.AVIOInterruptCB = type { ptr, ptr }
%struct.concat_data = type { ptr, i64, i64, i64 }
%struct.concat_nodes = type { ptr, i64 }

@.str.4 = private unnamed_addr constant [8 x i8] c"concat:\00", align 1
@.str.5 = private unnamed_addr constant [21 x i8] c"URL %s lacks prefix\0A\00", align 1
@.str.6 = private unnamed_addr constant [2 x i8] c"|\00", align 1

; Function Attrs: cold nounwind optsize uwtable
define internal i32 @concat_open(ptr noundef %0, ptr noundef %1, i32 noundef %2) #0 {
  %4 = alloca i32, align 4
  %5 = alloca ptr, align 8
  %6 = alloca ptr, align 8
  %7 = alloca i32, align 4
  %8 = alloca ptr, align 8
  %9 = alloca i32, align 4
  %10 = alloca i64, align 8
  %11 = alloca i64, align 8
  %12 = alloca i64, align 8
  %13 = alloca i64, align 8
  %14 = alloca ptr, align 8
  %15 = alloca ptr, align 8
  %16 = alloca ptr, align 8
  %17 = alloca i32, align 4
  store ptr %0, ptr %5, align 8, !tbaa !4
  store ptr %1, ptr %6, align 8, !tbaa !9
  store i32 %2, ptr %7, align 4, !tbaa !11
  call void @llvm.lifetime.start.p0(i64 8, ptr %8) #6
  store ptr null, ptr %8, align 8, !tbaa !9
  call void @llvm.lifetime.start.p0(i64 4, ptr %9) #6
  store i32 0, ptr %9, align 4, !tbaa !11
  call void @llvm.lifetime.start.p0(i64 8, ptr %10) #6
  call void @llvm.lifetime.start.p0(i64 8, ptr %11) #6
  store i64 0, ptr %11, align 8, !tbaa !13
  call void @llvm.lifetime.start.p0(i64 8, ptr %12) #6
  call void @llvm.lifetime.start.p0(i64 8, ptr %13) #6
  call void @llvm.lifetime.start.p0(i64 8, ptr %14) #6
  call void @llvm.lifetime.start.p0(i64 8, ptr %15) #6
  %18 = load ptr, ptr %5, align 8, !tbaa !4
  %19 = getelementptr inbounds nuw %struct.URLContext, ptr %18, i32 0, i32 2
  %20 = load ptr, ptr %19, align 8, !tbaa !15
  store ptr %20, ptr %15, align 8, !tbaa !20
  call void @llvm.lifetime.start.p0(i64 8, ptr %16) #6
  %21 = load ptr, ptr %6, align 8, !tbaa !9
  %22 = call i32 @av_strstart(ptr noundef %21, ptr noundef @.str.4, ptr noundef %6)
  %23 = icmp ne i32 %22, 0
  br i1 %23, label %27, label %24

24:                                               ; preds = %3
  %25 = load ptr, ptr %5, align 8, !tbaa !4
  %26 = load ptr, ptr %6, align 8, !tbaa !9
  call void (ptr, i32, ptr, ...) @av_log(ptr noundef %25, i32 noundef 16, ptr noundef @.str.5, ptr noundef %26)
  store i32 -22, ptr %4, align 4
  store i32 1, ptr %17, align 4
  br label %161

27:                                               ; preds = %3
  store i64 0, ptr %13, align 8, !tbaa !13
  store i64 1, ptr %12, align 8, !tbaa !13
  br label %28

28:                                               ; preds = %47, %27
  %29 = load ptr, ptr %6, align 8, !tbaa !9
  %30 = load i64, ptr %13, align 8, !tbaa !13
  %31 = getelementptr inbounds nuw i8, ptr %29, i64 %30
  %32 = load i8, ptr %31, align 1, !tbaa !22
  %33 = icmp ne i8 %32, 0
  br i1 %33, label %34, label %50

34:                                               ; preds = %28
  %35 = load ptr, ptr %6, align 8, !tbaa !9
  %36 = load i64, ptr %13, align 8, !tbaa !13
  %37 = getelementptr inbounds nuw i8, ptr %35, i64 %36
  %38 = load i8, ptr %37, align 1, !tbaa !22
  %39 = sext i8 %38 to i32
  %40 = load i8, ptr @.str.6, align 1, !tbaa !22
  %41 = sext i8 %40 to i32
  %42 = icmp eq i32 %39, %41
  br i1 %42, label %43, label %46

43:                                               ; preds = %34
  %44 = load i64, ptr %12, align 8, !tbaa !13
  %45 = add i64 %44, 1
  store i64 %45, ptr %12, align 8, !tbaa !13
  br label %46

46:                                               ; preds = %43, %34
  br label %47

47:                                               ; preds = %46
  %48 = load i64, ptr %13, align 8, !tbaa !13
  %49 = add i64 %48, 1
  store i64 %49, ptr %13, align 8, !tbaa !13
  br label %28, !llvm.loop !23

50:                                               ; preds = %28
  %51 = load i64, ptr %12, align 8, !tbaa !13
  %52 = call ptr @av_realloc_array(ptr noundef null, i64 noundef %51, i64 noundef 16)
  store ptr %52, ptr %16, align 8, !tbaa !25
  %53 = icmp ne ptr %52, null
  br i1 %53, label %55, label %54

54:                                               ; preds = %50
  store i32 -12, ptr %4, align 4
  store i32 1, ptr %17, align 4
  br label %161

55:                                               ; preds = %50
  %56 = load ptr, ptr %16, align 8, !tbaa !25
  %57 = load ptr, ptr %15, align 8, !tbaa !20
  %58 = getelementptr inbounds nuw %struct.concat_data, ptr %57, i32 0, i32 0
  store ptr %56, ptr %58, align 8, !tbaa !27
  br label %59

59:                                               ; preds = %55
  %60 = load ptr, ptr %6, align 8, !tbaa !9
  %61 = load i8, ptr %60, align 1, !tbaa !22
  %62 = icmp ne i8 %61, 0
  br i1 %62, label %64, label %63

63:                                               ; preds = %59
  store i32 -2, ptr %9, align 4, !tbaa !11
  br label %64

64:                                               ; preds = %63, %59
  store i64 0, ptr %13, align 8, !tbaa !13
  br label %65

65:                                               ; preds = %127, %64
  %66 = load ptr, ptr %6, align 8, !tbaa !9
  %67 = load i8, ptr %66, align 1, !tbaa !22
  %68 = icmp ne i8 %67, 0
  br i1 %68, label %69, label %130

69:                                               ; preds = %65
  %70 = load ptr, ptr %6, align 8, !tbaa !9
  %71 = call i64 @strcspn(ptr noundef %70, ptr noundef @.str.6) #7
  store i64 %71, ptr %12, align 8, !tbaa !13
  %72 = load i64, ptr %12, align 8, !tbaa !13
  %73 = add i64 %72, 1
  %74 = call i32 @av_reallocp(ptr noundef %8, i64 noundef %73)
  store i32 %74, ptr %9, align 4, !tbaa !11
  %75 = icmp slt i32 %74, 0
  br i1 %75, label %76, label %77

76:                                               ; preds = %69
  br label %130

77:                                               ; preds = %69
  %78 = load ptr, ptr %8, align 8, !tbaa !9
  %79 = load ptr, ptr %6, align 8, !tbaa !9
  %80 = load i64, ptr %12, align 8, !tbaa !13
  %81 = add i64 %80, 1
  %82 = call i64 @av_strlcpy(ptr noundef %78, ptr noundef %79, i64 noundef %81)
  %83 = load i64, ptr %12, align 8, !tbaa !13
  %84 = load ptr, ptr %6, align 8, !tbaa !9
  %85 = load i64, ptr %12, align 8, !tbaa !13
  %86 = getelementptr inbounds nuw i8, ptr %84, i64 %85
  %87 = call i64 @strspn(ptr noundef %86, ptr noundef @.str.6) #7
  %88 = add i64 %83, %87
  %89 = load ptr, ptr %6, align 8, !tbaa !9
  %90 = getelementptr inbounds nuw i8, ptr %89, i64 %88
  store ptr %90, ptr %6, align 8, !tbaa !9
  %91 = load ptr, ptr %8, align 8, !tbaa !9
  %92 = load i32, ptr %7, align 4, !tbaa !11
  %93 = load ptr, ptr %5, align 8, !tbaa !4
  %94 = getelementptr inbounds nuw %struct.URLContext, ptr %93, i32 0, i32 8
  %95 = load ptr, ptr %5, align 8, !tbaa !4
  %96 = getelementptr inbounds nuw %struct.URLContext, ptr %95, i32 0, i32 10
  %97 = load ptr, ptr %96, align 8, !tbaa !29
  %98 = load ptr, ptr %5, align 8, !tbaa !4
  %99 = getelementptr inbounds nuw %struct.URLContext, ptr %98, i32 0, i32 11
  %100 = load ptr, ptr %99, align 8, !tbaa !30
  %101 = load ptr, ptr %5, align 8, !tbaa !4
  %102 = call i32 @ffurl_open_whitelist(ptr noundef %14, ptr noundef %91, i32 noundef %92, ptr noundef %94, ptr noundef null, ptr noundef %97, ptr noundef %100, ptr noundef %101)
  store i32 %102, ptr %9, align 4, !tbaa !11
  %103 = load i32, ptr %9, align 4, !tbaa !11
  %104 = icmp slt i32 %103, 0
  br i1 %104, label %105, label %106

105:                                              ; preds = %77
  br label %130

106:                                              ; preds = %77
  %107 = load ptr, ptr %14, align 8, !tbaa !4
  %108 = call i64 @ffurl_size(ptr noundef %107)
  store i64 %108, ptr %10, align 8, !tbaa !13
  %109 = icmp slt i64 %108, 0
  br i1 %109, label %110, label %113

110:                                              ; preds = %106
  %111 = load ptr, ptr %14, align 8, !tbaa !4
  %112 = call i32 @ffurl_close(ptr noundef %111)
  store i32 -38, ptr %9, align 4, !tbaa !11
  br label %130

113:                                              ; preds = %106
  %114 = load ptr, ptr %14, align 8, !tbaa !4
  %115 = load ptr, ptr %16, align 8, !tbaa !25
  %116 = load i64, ptr %13, align 8, !tbaa !13
  %117 = getelementptr inbounds nuw %struct.concat_nodes, ptr %115, i64 %116
  %118 = getelementptr inbounds nuw %struct.concat_nodes, ptr %117, i32 0, i32 0
  store ptr %114, ptr %118, align 8, !tbaa !31
  %119 = load i64, ptr %10, align 8, !tbaa !13
  %120 = load ptr, ptr %16, align 8, !tbaa !25
  %121 = load i64, ptr %13, align 8, !tbaa !13
  %122 = getelementptr inbounds nuw %struct.concat_nodes, ptr %120, i64 %121
  %123 = getelementptr inbounds nuw %struct.concat_nodes, ptr %122, i32 0, i32 1
  store i64 %119, ptr %123, align 8, !tbaa !33
  %124 = load i64, ptr %10, align 8, !tbaa !13
  %125 = load i64, ptr %11, align 8, !tbaa !13
  %126 = add nsw i64 %125, %124
  store i64 %126, ptr %11, align 8, !tbaa !13
  br label %127

127:                                              ; preds = %113
  %128 = load i64, ptr %13, align 8, !tbaa !13
  %129 = add i64 %128, 1
  store i64 %129, ptr %13, align 8, !tbaa !13
  br label %65, !llvm.loop !34

130:                                              ; preds = %110, %105, %76, %65
  %131 = load ptr, ptr %8, align 8, !tbaa !9
  call void @av_free(ptr noundef %131)
  %132 = load i64, ptr %13, align 8, !tbaa !13
  %133 = load ptr, ptr %15, align 8, !tbaa !20
  %134 = getelementptr inbounds nuw %struct.concat_data, ptr %133, i32 0, i32 1
  store i64 %132, ptr %134, align 8, !tbaa !35
  %135 = load i32, ptr %9, align 4, !tbaa !11
  %136 = icmp slt i32 %135, 0
  br i1 %136, label %137, label %140

137:                                              ; preds = %130
  %138 = load ptr, ptr %5, align 8, !tbaa !4
  %139 = call i32 @concat_close(ptr noundef %138) #8
  br label %156

140:                                              ; preds = %130
  %141 = load ptr, ptr %16, align 8, !tbaa !25
  %142 = load ptr, ptr %15, align 8, !tbaa !20
  %143 = getelementptr inbounds nuw %struct.concat_data, ptr %142, i32 0, i32 1
  %144 = load i64, ptr %143, align 8, !tbaa !35
  %145 = mul i64 %144, 16
  %146 = call ptr @av_realloc(ptr noundef %141, i64 noundef %145)
  store ptr %146, ptr %16, align 8, !tbaa !25
  %147 = icmp ne ptr %146, null
  br i1 %147, label %151, label %148

148:                                              ; preds = %140
  %149 = load ptr, ptr %5, align 8, !tbaa !4
  %150 = call i32 @concat_close(ptr noundef %149) #8
  store i32 -12, ptr %9, align 4, !tbaa !11
  br label %155

151:                                              ; preds = %140
  %152 = load ptr, ptr %16, align 8, !tbaa !25
  %153 = load ptr, ptr %15, align 8, !tbaa !20
  %154 = getelementptr inbounds nuw %struct.concat_data, ptr %153, i32 0, i32 0
  store ptr %152, ptr %154, align 8, !tbaa !27
  br label %155

155:                                              ; preds = %151, %148
  br label %156

156:                                              ; preds = %155, %137
  %157 = load i64, ptr %11, align 8, !tbaa !13
  %158 = load ptr, ptr %15, align 8, !tbaa !20
  %159 = getelementptr inbounds nuw %struct.concat_data, ptr %158, i32 0, i32 3
  store i64 %157, ptr %159, align 8, !tbaa !36
  %160 = load i32, ptr %9, align 4, !tbaa !11
  store i32 %160, ptr %4, align 4
  store i32 1, ptr %17, align 4
  br label %161

161:                                              ; preds = %156, %54, %24
  call void @llvm.lifetime.end.p0(i64 8, ptr %16) #6
  call void @llvm.lifetime.end.p0(i64 8, ptr %15) #6
  call void @llvm.lifetime.end.p0(i64 8, ptr %14) #6
  call void @llvm.lifetime.end.p0(i64 8, ptr %13) #6
  call void @llvm.lifetime.end.p0(i64 8, ptr %12) #6
  call void @llvm.lifetime.end.p0(i64 8, ptr %11) #6
  call void @llvm.lifetime.end.p0(i64 8, ptr %10) #6
  call void @llvm.lifetime.end.p0(i64 4, ptr %9) #6
  call void @llvm.lifetime.end.p0(i64 8, ptr %8) #6
  %162 = load i32, ptr %4, align 4
  ret i32 %162
}