; Function Attrs: cold nounwind optsize uwtable
define internal i32 @concat_open(ptr noundef %0, ptr noundef %1, i32 noundef %2) #0 {
  %4 = alloca ptr, align 8
  %5 = alloca ptr, align 8
  %6 = alloca ptr, align 8
  store ptr %1, ptr %4, align 8, !tbaa !4
  call void @llvm.lifetime.start.p0(i64 8, ptr nonnull %5) #5
  store ptr null, ptr %5, align 8, !tbaa !4
  call void @llvm.lifetime.start.p0(i64 8, ptr nonnull %6) #5
  %7 = getelementptr inbounds nuw i8, ptr %0, i64 16
  %8 = load ptr, ptr %7, align 8, !tbaa !9
  %9 = call i32 @av_strstart(ptr noundef %1, ptr noundef nonnull @.str.4, ptr noundef nonnull %4) #5
  %.not = icmp eq i32 %9, 0
  %10 = load ptr, ptr %4, align 8, !tbaa !4
  br i1 %.not, label %11, label %.preheader

11:                                               ; preds = %3
  call void (ptr, i32, ptr, ...) @av_log(ptr noundef nonnull %0, i32 noundef 16, ptr noundef nonnull @.str.5, ptr noundef %10) #5
  br label %72

.preheader:                                       ; preds = %3, %16
  %.040 = phi i64 [ %.141, %16 ], [ 1, %3 ]
  %.039 = phi i64 [ %17, %16 ], [ 0, %3 ]
  %12 = getelementptr inbounds nuw i8, ptr %10, i64 %.039
  %13 = load i8, ptr %12, align 1, !tbaa !16
  switch i8 %13, label %16 [
    i8 0, label %18
    i8 124, label %14
  ]

14:                                               ; preds = %.preheader
  %15 = add i64 %.040, 1
  br label %16

16:                                               ; preds = %.preheader, %14
  %.141 = phi i64 [ %15, %14 ], [ %.040, %.preheader ]
  %17 = add i64 %.039, 1
  br label %.preheader, !llvm.loop !17

18:                                               ; preds = %.preheader
  %19 = call ptr @av_realloc_array(ptr noundef null, i64 noundef %.040, i64 noundef 16) #5
  %.not53 = icmp eq ptr %19, null
  br i1 %.not53, label %72, label %20

20:                                               ; preds = %18
  store ptr %19, ptr %8, align 8, !tbaa !19
  %21 = load ptr, ptr %4, align 8, !tbaa !4
  %22 = load i8, ptr %21, align 1, !tbaa !16
  %.not54 = icmp eq i8 %22, 0
  br i1 %.not54, label %.loopexit, label %.lr.ph

.lr.ph:                                           ; preds = %20
  %23 = getelementptr inbounds nuw i8, ptr %0, i64 48
  %24 = getelementptr inbounds nuw i8, ptr %0, i64 72
  %25 = getelementptr inbounds nuw i8, ptr %0, i64 80
  br label %26

26:                                               ; preds = %.lr.ph, %52
  %27 = phi ptr [ %21, %.lr.ph ], [ %57, %52 ]
  %.163 = phi i64 [ 0, %.lr.ph ], [ %56, %52 ]
  %.04262 = phi i64 [ 0, %.lr.ph ], [ %55, %52 ]
  %28 = call i64 @strcspn(ptr noundef nonnull %27, ptr noundef nonnull @.str.6) #6
  %29 = add i64 %28, 1
  %30 = call i32 @av_reallocp(ptr noundef nonnull %5, i64 noundef %29) #5
  %31 = icmp slt i32 %30, 0
  br i1 %31, label %.loopexit, label %32

32:                                               ; preds = %26
  %33 = load ptr, ptr %5, align 8, !tbaa !4
  %34 = load ptr, ptr %4, align 8, !tbaa !4
  %35 = call i64 @av_strlcpy(ptr noundef %33, ptr noundef %34, i64 noundef %29) #5
  %36 = load ptr, ptr %4, align 8, !tbaa !4
  %37 = getelementptr inbounds nuw i8, ptr %36, i64 %28
  %38 = call i64 @strspn(ptr noundef %37, ptr noundef nonnull @.str.6) #6
  %39 = getelementptr i8, ptr %37, i64 %38
  store ptr %39, ptr %4, align 8, !tbaa !4
  %40 = load ptr, ptr %5, align 8, !tbaa !4
  %41 = load ptr, ptr %24, align 8, !tbaa !22
  %42 = load ptr, ptr %25, align 8, !tbaa !23
  %43 = call i32 @ffurl_open_whitelist(ptr noundef nonnull %6, ptr noundef %40, i32 noundef %2, ptr noundef nonnull %23, ptr noundef null, ptr noundef %41, ptr noundef %42, ptr noundef %0) #5
  %44 = icmp slt i32 %43, 0
  br i1 %44, label %.loopexit, label %45

45:                                               ; preds = %32
  %46 = load ptr, ptr %6, align 8, !tbaa !24
  %47 = call i64 @ffurl_size(ptr noundef %46) #5
  %48 = icmp slt i64 %47, 0
  %49 = load ptr, ptr %6, align 8, !tbaa !24
  br i1 %48, label %50, label %52

50:                                               ; preds = %45
  %51 = call i32 @ffurl_close(ptr noundef %49) #5
  br label %.loopexit

52:                                               ; preds = %45
  %53 = getelementptr inbounds nuw %struct.concat_nodes, ptr %19, i64 %.163
  store ptr %49, ptr %53, align 8, !tbaa !26
  %54 = getelementptr inbounds nuw i8, ptr %53, i64 8
  store i64 %47, ptr %54, align 8, !tbaa !28
  %55 = add nuw nsw i64 %47, %.04262
  %56 = add i64 %.163, 1
  %57 = load ptr, ptr %4, align 8, !tbaa !4
  %58 = load i8, ptr %57, align 1, !tbaa !16
  %.not55 = icmp eq i8 %58, 0
  br i1 %.not55, label %.loopexit, label %26, !llvm.loop !29

.loopexit:                                        ; preds = %52, %26, %32, %20, %50
  %.04260 = phi i64 [ %.04262, %50 ], [ 0, %20 ], [ %55, %52 ], [ %.04262, %26 ], [ %.04262, %32 ]
  %.158 = phi i64 [ %.163, %50 ], [ 0, %20 ], [ %56, %52 ], [ %.163, %26 ], [ %.163, %32 ]
  %.2 = phi i32 [ -38, %50 ], [ -2, %20 ], [ %43, %52 ], [ %30, %26 ], [ %43, %32 ]
  %59 = load ptr, ptr %5, align 8, !tbaa !4
  call void @av_free(ptr noundef %59) #5
  %60 = getelementptr inbounds nuw i8, ptr %8, i64 8
  store i64 %.158, ptr %60, align 8, !tbaa !30
  %61 = icmp slt i32 %.2, 0
  br i1 %61, label %62, label %64

62:                                               ; preds = %.loopexit
  %63 = call i32 @concat_close(ptr noundef %0) #7
  br label %70

64:                                               ; preds = %.loopexit
  %65 = shl i64 %.158, 4
  %66 = call ptr @av_realloc(ptr noundef nonnull %19, i64 noundef %65) #5
  %.not56 = icmp eq ptr %66, null
  br i1 %.not56, label %67, label %69

67:                                               ; preds = %64
  %68 = call i32 @concat_close(ptr noundef %0) #7
  br label %70

69:                                               ; preds = %64
  store ptr %66, ptr %8, align 8, !tbaa !19
  br label %70

70:                                               ; preds = %67, %69, %62
  %.3 = phi i32 [ %.2, %62 ], [ %.2, %69 ], [ -12, %67 ]
  %71 = getelementptr inbounds nuw i8, ptr %8, i64 24
  store i64 %.04260, ptr %71, align 8, !tbaa !31
  br label %72

72:                                               ; preds = %18, %70, %11
  %.0 = phi i32 [ %.3, %70 ], [ -22, %11 ], [ -12, %18 ]
  call void @llvm.lifetime.end.p0(i64 8, ptr nonnull %6) #5
  call void @llvm.lifetime.end.p0(i64 8, ptr nonnull %5) #5
  ret i32 %.0
}